; Function Attrs: nounwind uwtable
define ptr @l_Array_foldlMUnsafe_fold___at_Lean_Elab_Deriving_DecEq_mkDecEqInstanceHandler___spec__1___boxed(ptr noundef %0, ptr noundef %1, ptr noundef %2, ptr noundef %3, ptr noundef %4, ptr noundef %5, ptr noundef %6) local_unnamed_addr #0 {
  %8 = getelementptr i8, ptr %1, i64 8
  %.val23 = load i64, ptr %8, align 8, !tbaa !12
  %9 = ptrtoint ptr %1 to i64
  %10 = and i64 %9, 1
  %.not = icmp eq i64 %10, 0
  br i1 %.not, label %11, label %lean_dec.exit16

11:                                               ; preds = %7
  %12 = load i32, ptr %1, align 4, !tbaa !8
  %13 = icmp sgt i32 %12, 1
  br i1 %13, label %14, label %16, !prof !11

14:                                               ; preds = %11
  %15 = add nsw i32 %12, -1
  store i32 %15, ptr %1, align 4, !tbaa !8
  br label %lean_dec.exit16

16:                                               ; preds = %11
  %.not.i = icmp eq i32 %12, 0
  br i1 %.not.i, label %lean_dec.exit16, label %17

17:                                               ; preds = %16
  tail call void @lean_dec_ref_cold(ptr noundef nonnull %1) #5
  br label %lean_dec.exit16

lean_dec.exit16:                                  ; preds = %17, %16, %14, %7
  %18 = getelementptr i8, ptr %2, i64 8
  %.val = load i64, ptr %18, align 8, !tbaa !12
  %19 = ptrtoint ptr %2 to i64
  %20 = and i64 %19, 1
  %.not24 = icmp eq i64 %20, 0
  br i1 %.not24, label %21, label %lean_dec.exit15

21:                                               ; preds = %lean_dec.exit16
  %22 = load i32, ptr %2, align 4, !tbaa !8
  %23 = icmp sgt i32 %22, 1
  br i1 %23, label %24, label %26, !prof !11

24:                                               ; preds = %21
  %25 = add nsw i32 %22, -1
  store i32 %25, ptr %2, align 4, !tbaa !8
  br label %lean_dec.exit15

26:                                               ; preds = %21
  %.not.i17 = icmp eq i32 %22, 0
  br i1 %.not.i17, label %lean_dec.exit15, label %27

27:                                               ; preds = %26
  tail call void @lean_dec_ref_cold(ptr noundef nonnull %2) #5
  br label %lean_dec.exit15

lean_dec.exit15:                                  ; preds = %27, %26, %24, %lean_dec.exit16
  %28 = ptrtoint ptr %3 to i64
  %29 = lshr i64 %28, 1
  %30 = trunc i64 %29 to i8
  %31 = and i64 %28, 1
  %.not25 = icmp eq i64 %31, 0
  br i1 %.not25, label %32, label %lean_dec.exit14

32:                                               ; preds = %lean_dec.exit15
  %33 = load i32, ptr %3, align 4, !tbaa !8
  %34 = icmp sgt i32 %33, 1
  br i1 %34, label %35, label %37, !prof !11

35:                                               ; preds = %32
  %36 = add nsw i32 %33, -1
  store i32 %36, ptr %3, align 4, !tbaa !8
  br label %lean_dec.exit14

37:                                               ; preds = %32
  %.not.i19 = icmp eq i32 %33, 0
  br i1 %.not.i19, label %lean_dec.exit14, label %38

38:                                               ; preds = %37
  tail call void @lean_dec_ref_cold(ptr noundef nonnull %3) #5
  br label %lean_dec.exit14

lean_dec.exit14:                                  ; preds = %38, %37, %35, %lean_dec.exit15
  %39 = tail call ptr @l_Array_foldlMUnsafe_fold___at_Lean_Elab_Deriving_DecEq_mkDecEqInstanceHandler___spec__1(ptr noundef %0, i64 noundef %.val23, i64 noundef %.val, i8 noundef zeroext %30, ptr noundef %4, ptr noundef %5, ptr noundef %6)
  %40 = ptrtoint ptr %0 to i64
  %41 = and i64 %40, 1
  %.not26 = icmp eq i64 %41, 0
  br i1 %.not26, label %42, label %lean_dec.exit

42:                                               ; preds = %lean_dec.exit14
  %43 = load i32, ptr %0, align 4, !tbaa !8
  %44 = icmp sgt i32 %43, 1
  br i1 %44, label %45, label %47, !prof !11

45:                                               ; preds = %42
  %46 = add nsw i32 %43, -1
  store i32 %46, ptr %0, align 4, !tbaa !8
  br label %lean_dec.exit

47:                                               ; preds = %42
  %.not.i21 = icmp eq i32 %43, 0
  br i1 %.not.i21, label %lean_dec.exit, label %48

48:                                               ; preds = %47
  tail call void @lean_dec_ref_cold(ptr noundef nonnull %0) #5
  br label %lean_dec.exit

lean_dec.exit:                                    ; preds = %48, %47, %45, %lean_dec.exit14
  ret ptr %39
}